target datalayout = "e-m:e-p270:32:32-p271:32:32-p272:64:64-i64:64-i128:128-f80:128-n8:16:32:64-S128"
target triple = "x86_64-pc-linux-gnu"

%class.MethodMatcher = type { ptr, ptr, ptr, i32, i32 }
%class.InlineMatcher = type { %class.MethodMatcher, i32, ptr }

; Function Attrs: mustprogress nounwind uwtable
define hidden void @_ZN13MethodMatcherC2Ev(ptr noundef nonnull align 8 dereferenceable(32) %0) unnamed_addr #1 align 2 {
  %2 = alloca ptr, align 8
  store ptr %0, ptr %2, align 8
  %3 = load ptr, ptr %2, align 8
  %4 = getelementptr inbounds %class.MethodMatcher, ptr %3, i32 0, i32 0
  store ptr null, ptr %4, align 8
  %5 = getelementptr inbounds %class.MethodMatcher, ptr %3, i32 0, i32 1
  store ptr null, ptr %5, align 8
  %6 = getelementptr inbounds %class.MethodMatcher, ptr %3, i32 0, i32 2
  store ptr null, ptr %6, align 8
  %7 = getelementptr inbounds %class.MethodMatcher, ptr %3, i32 0, i32 3
  store i32 0, ptr %7, align 8
  %8 = getelementptr inbounds %class.MethodMatcher, ptr %3, i32 0, i32 4
  store i32 0, ptr %8, align 4
  ret void
}

; Function Attrs: mustprogress nounwind uwtable
define linkonce_odr hidden void @_ZN13InlineMatcherC2Ev(ptr noundef nonnull align 8 dereferenceable(48) %0) unnamed_addr #1 comdat align 2 {
  %2 = alloca ptr, align 8
  store ptr %0, ptr %2, align 8
  %3 = load ptr, ptr %2, align 8
  call void @_ZN13MethodMatcherC2Ev(ptr noundef nonnull align 8 dereferenceable(32) %3)
  %4 = getelementptr inbounds %class.InlineMatcher, ptr %3, i32 0, i32 1
  store i32 0, ptr %4, align 8
  %5 = getelementptr inbounds %class.InlineMatcher, ptr %3, i32 0, i32 2
  store ptr null, ptr %5, align 8
  ret void
}

; Function Attrs: mustprogress nounwind uwtable
define hidden noundef ptr @_ZN13InlineMatcher5cloneEv(ptr noundef nonnull align 8 dereferenceable(48) %0) #1 align 2 {
  %2 = alloca i64, align 8
  %3 = alloca i8, align 1
  %4 = alloca i64, align 8
  %5 = alloca ptr, align 8
  %6 = alloca ptr, align 8
  store ptr %0, ptr %5, align 8
  %7 = load ptr, ptr %5, align 8
  store i64 48, ptr %4, align 8
  %8 = load i64, ptr %4, align 8
  store i64 %8, ptr %2, align 8
  store i8 7, ptr %3, align 1
  %9 = load i64, ptr %2, align 8
  %10 = load i8, ptr %3, align 1
  %11 = call noundef ptr @_Z12AllocateHeapm8MEMFLAGSN17AllocFailStrategy13AllocFailEnumE(i64 noundef %9, i8 noundef zeroext %10, i32 noundef 0) #9
  call void @_ZN13InlineMatcherC2Ev(ptr noundef nonnull align 8 dereferenceable(48) %11)
  store ptr %11, ptr %6, align 8
  %12 = getelementptr inbounds %class.MethodMatcher, ptr %7, i32 0, i32 3
  %13 = load i32, ptr %12, align 8
  %14 = load ptr, ptr %6, align 8
  %15 = getelementptr inbounds %class.MethodMatcher, ptr %14, i32 0, i32 3
  store i32 %13, ptr %15, align 8
  %16 = getelementptr inbounds %class.MethodMatcher, ptr %7, i32 0, i32 4
  %17 = load i32, ptr %16, align 4
  %18 = load ptr, ptr %6, align 8
  %19 = getelementptr inbounds %class.MethodMatcher, ptr %18, i32 0, i32 4
  store i32 %17, ptr %19, align 4
  %20 = getelementptr inbounds %class.InlineMatcher, ptr %7, i32 0, i32 1
  %21 = load i32, ptr %20, align 8
  %22 = load ptr, ptr %6, align 8
  %23 = getelementptr inbounds %class.InlineMatcher, ptr %22, i32 0, i32 1
  store i32 %21, ptr %23, align 8
  %24 = getelementptr inbounds %class.MethodMatcher, ptr %7, i32 0, i32 0
  %25 = load ptr, ptr %24, align 8
  %26 = load ptr, ptr %6, align 8
  %27 = getelementptr inbounds %class.MethodMatcher, ptr %26, i32 0, i32 0
  store ptr %25, ptr %27, align 8
  %28 = getelementptr inbounds %class.MethodMatcher, ptr %7, i32 0, i32 0
  %29 = load ptr, ptr %28, align 8
  %30 = icmp ne ptr %29, null
  br i1 %30, label %31, label %34

31:                                               ; preds = %1
  %32 = getelementptr inbounds %class.MethodMatcher, ptr %7, i32 0, i32 0
  %33 = load ptr, ptr %32, align 8
  call void @_ZN6Symbol18increment_refcountEv(ptr noundef nonnull align 4 dereferenceable(8) %33)
  br label %34

34:                                               ; preds = %31, %1
  %35 = getelementptr inbounds %class.MethodMatcher, ptr %7, i32 0, i32 1
  %36 = load ptr, ptr %35, align 8
  %37 = load ptr, ptr %6, align 8
  %38 = getelementptr inbounds %class.MethodMatcher, ptr %37, i32 0, i32 1
  store ptr %36, ptr %38, align 8
  %39 = getelementptr inbounds %class.MethodMatcher, ptr %7, i32 0, i32 1
  %40 = load ptr, ptr %39, align 8
  %41 = icmp ne ptr %40, null
  br i1 %41, label %42, label %45

42:                                               ; preds = %34
  %43 = getelementptr inbounds %class.MethodMatcher, ptr %7, i32 0, i32 1
  %44 = load ptr, ptr %43, align 8
  call void @_ZN6Symbol18increment_refcountEv(ptr noundef nonnull align 4 dereferenceable(8) %44)
  br label %45

45:                                               ; preds = %42, %34
  %46 = getelementptr inbounds %class.MethodMatcher, ptr %7, i32 0, i32 2
  %47 = load ptr, ptr %46, align 8
  %48 = load ptr, ptr %6, align 8
  %49 = getelementptr inbounds %class.MethodMatcher, ptr %48, i32 0, i32 2
  store ptr %47, ptr %49, align 8
  %50 = getelementptr inbounds %class.MethodMatcher, ptr %7, i32 0, i32 2
  %51 = load ptr, ptr %50, align 8
  %52 = icmp ne ptr %51, null
  br i1 %52, label %53, label %56

53:                                               ; preds = %45
  %54 = getelementptr inbounds %class.MethodMatcher, ptr %7, i32 0, i32 2
  %55 = load ptr, ptr %54, align 8
  call void @_ZN6Symbol18increment_refcountEv(ptr noundef nonnull align 4 dereferenceable(8) %55)
  br label %56

56:                                               ; preds = %53, %45
  %57 = load ptr, ptr %6, align 8
  ret ptr %57
}