; Function Attrs: mustprogress nounwind uwtable
define hidden noundef ptr @_ZN13InlineMatcher5cloneEv(ptr nocapture noundef nonnull readonly align 8 dereferenceable(48) %0) local_unnamed_addr #1 align 2 {
  %2 = tail call noundef ptr @_Z12AllocateHeapm8MEMFLAGSN17AllocFailStrategy13AllocFailEnumE(i64 noundef 48, i8 noundef zeroext 7, i32 noundef 0) #14
  %3 = getelementptr inbounds i8, ptr %2, i64 40
  store ptr null, ptr %3, align 8
  tail call void @llvm.memset.p0.i64(ptr noundef nonnull align 8 dereferenceable(36) %2, i8 0, i64 36, i1 false)
  %4 = getelementptr inbounds i8, ptr %0, i64 24
  %5 = load i32, ptr %4, align 8
  %6 = getelementptr inbounds i8, ptr %2, i64 24
  store i32 %5, ptr %6, align 8
  %7 = getelementptr inbounds i8, ptr %0, i64 28
  %8 = load i32, ptr %7, align 4
  %9 = getelementptr inbounds i8, ptr %2, i64 28
  store i32 %8, ptr %9, align 4
  %10 = getelementptr inbounds i8, ptr %0, i64 32
  %11 = load i32, ptr %10, align 8
  %12 = getelementptr inbounds i8, ptr %2, i64 32
  store i32 %11, ptr %12, align 8
  %13 = load ptr, ptr %0, align 8
  store ptr %13, ptr %2, align 8
  %.not = icmp eq ptr %13, null
  br i1 %.not, label %15, label %14

14:                                               ; preds = %1
  tail call void @_ZN6Symbol18increment_refcountEv(ptr noundef nonnull align 4 dereferenceable(8) %13) #14
  br label %15

15:                                               ; preds = %14, %1
  %16 = getelementptr inbounds i8, ptr %0, i64 8
  %17 = load ptr, ptr %16, align 8
  %18 = getelementptr inbounds i8, ptr %2, i64 8
  store ptr %17, ptr %18, align 8
  %.not12 = icmp eq ptr %17, null
  br i1 %.not12, label %20, label %19

19:                                               ; preds = %15
  tail call void @_ZN6Symbol18increment_refcountEv(ptr noundef nonnull align 4 dereferenceable(8) %17) #14
  br label %20

20:                                               ; preds = %19, %15
  %21 = getelementptr inbounds i8, ptr %0, i64 16
  %22 = load ptr, ptr %21, align 8
  %23 = getelementptr inbounds i8, ptr %2, i64 16
  store ptr %22, ptr %23, align 8
  %.not13 = icmp eq ptr %22, null
  br i1 %.not13, label %25, label %24

24:                                               ; preds = %20
  tail call void @_ZN6Symbol18increment_refcountEv(ptr noundef nonnull align 4 dereferenceable(8) %22) #14
  br label %25

25:                                               ; preds = %24, %20
  ret ptr %2
}